; Function Attrs: mustprogress ssp uwtable
define void @_ZN6open3d4core3nns21NearestNeighborSearch9KnnSearchERKNS0_6TensorEi(ptr dead_on_unwind noalias writable sret(%"struct.std::pair") align 8 %0, ptr noundef nonnull align 8 dereferenceable(216) %1, ptr noundef nonnull align 8 dereferenceable(160) %2, i32 noundef %3) local_unnamed_addr #4 align 2 {
  %5 = alloca %"class.open3d::core::Device", align 8
  call void @llvm.lifetime.start.p0(i64 8, ptr nonnull %5) #14
  %6 = getelementptr inbounds nuw i8, ptr %1, i64 24
  %7 = tail call i64 @_ZNK6open3d4core6Tensor9GetDeviceEv(ptr noundef nonnull align 8 dereferenceable(160) %6)
  store i64 %7, ptr %5, align 8
  call void @_ZN6open3d4core12tensor_check19AssertTensorDevice_EPKciS3_RKNS0_6TensorERKNS0_6DeviceE(ptr noundef nonnull @.str, i32 noundef 81, ptr noundef nonnull @__PRETTY_FUNCTION__._ZN6open3d4core3nns21NearestNeighborSearch9KnnSearchERKNS0_6TensorEi, ptr noundef nonnull align 8 dereferenceable(160) %2, ptr noundef nonnull align 4 dereferenceable(8) %5)
  call void @llvm.lifetime.end.p0(i64 8, ptr nonnull %5) #14
  %8 = load ptr, ptr %6, align 8, !tbaa !4
  %9 = getelementptr inbounds nuw i8, ptr %8, i64 16
  %10 = load ptr, ptr %9, align 8
  %11 = call i64 %10(ptr noundef nonnull align 8 dereferenceable(8) %6)
  %12 = and i64 %11, 4294967295
  %13 = icmp eq i64 %12, 1
  br i1 %13, label %14, label %18

14:                                               ; preds = %4
  %15 = getelementptr inbounds nuw i8, ptr %1, i64 16
  %16 = load ptr, ptr %15, align 8, !tbaa !21
  %.not5 = icmp eq ptr %16, null
  br i1 %.not5, label %17, label %21

17:                                               ; preds = %14
  call void @_ZN6open3d7utility6Logger9LogError_IJEEEvPKciS4_S4_DpOT_(ptr noundef nonnull @.str, i32 noundef 87, ptr noundef nonnull @__PRETTY_FUNCTION__._ZN6open3d4core3nns21NearestNeighborSearch9KnnSearchERKNS0_6TensorEi, ptr noundef nonnull @.str.6) #17
  unreachable

18:                                               ; preds = %4
  %19 = load ptr, ptr %1, align 8, !tbaa !25
  %.not = icmp eq ptr %19, null
  br i1 %.not, label %20, label %21

20:                                               ; preds = %18
  call void @_ZN6open3d7utility6Logger9LogError_IJEEEvPKciS4_S4_DpOT_(ptr noundef nonnull @.str, i32 noundef 93, ptr noundef nonnull @__PRETTY_FUNCTION__._ZN6open3d4core3nns21NearestNeighborSearch9KnnSearchERKNS0_6TensorEi, ptr noundef nonnull @.str.6) #17
  unreachable

21:                                               ; preds = %18, %14
  %.sink9 = phi ptr [ %16, %14 ], [ %19, %18 ]
  %22 = load ptr, ptr %.sink9, align 8, !tbaa !4
  %23 = getelementptr inbounds nuw i8, ptr %22, i64 32
  %24 = load ptr, ptr %23, align 8
  call void %24(ptr dead_on_unwind writable sret(%"struct.std::pair") align 8 %0, ptr noundef nonnull align 8 dereferenceable(208) %.sink9, ptr noundef nonnull align 8 dereferenceable(160) %2, i32 noundef %3)
  ret void
}